target datalayout = "e-m:e-p270:32:32-p271:32:32-p272:64:64-i64:64-i128:128-f80:128-n8:16:32:64-S128"
target triple = "x86_64-unknown-linux-gnu"

%"class.icu_75::MaybeStackArray" = type <{ ptr, i32, i8, [40 x i8], [3 x i8] }>
%"class.icu_75::number::impl::CurrencySymbols" = type { [8 x i8], %"class.icu_75::CurrencyUnit", %"class.icu_75::CharString", %"class.icu_75::UnicodeString", %"class.icu_75::UnicodeString" }
%"class.icu_75::CurrencyUnit" = type { %"class.icu_75::MeasureUnit.base", [4 x i16], [4 x i8] }
%"class.icu_75::MeasureUnit.base" = type <{ %"class.icu_75::UObject", ptr, i16, i8 }>
%"class.icu_75::UObject" = type { ptr }
%"class.icu_75::CharString" = type { %"class.icu_75::MaybeStackArray", i32, [4 x i8] }
%"class.icu_75::UnicodeString" = type { %"class.icu_75::Replaceable", %"union.icu_75::UnicodeString::StackBufferOrFields" }
%"class.icu_75::Replaceable" = type { %"class.icu_75::UObject" }
%"union.icu_75::UnicodeString::StackBufferOrFields" = type { %struct.anon.0, [32 x i8] }
%struct.anon.0 = type { i16, i32, i32, ptr }
%"class.icu_75::Locale" = type <{ %"class.icu_75::UObject", [12 x i8], [6 x i8], [4 x i8], [2 x i8], i32, [4 x i8], ptr, [157 x i8], [3 x i8], ptr, i8, [7 x i8] }>
%"class.icu_75::DecimalFormatSymbols" = type <{ %"class.icu_75::UObject", [29 x %"class.icu_75::UnicodeString"], %"class.icu_75::UnicodeString", i32, [4 x i8], %"class.icu_75::Locale", [157 x i8], [157 x i8], [6 x i8], ptr, [3 x %"class.icu_75::UnicodeString"], [3 x %"class.icu_75::UnicodeString"], i8, i8, [9 x i8], [5 x i8] }>

; Function Attrs: mustprogress nounwind uwtable
define linkonce_odr noundef signext i8 @_ZNK6icu_7520DecimalFormatSymbols26isCustomIntlCurrencySymbolEv(ptr noundef nonnull align 8 dereferenceable(2883) %this) #0 comdat align 2 {
entry:
  %this.addr = alloca ptr, align 8
  store ptr %this, ptr %this.addr, align 8
  %this1 = load ptr, ptr %this.addr, align 8
  %fIsCustomIntlCurrencySymbol = getelementptr inbounds %"class.icu_75::DecimalFormatSymbols", ptr %this1, i32 0, i32 13
  %0 = load i8, ptr %fIsCustomIntlCurrencySymbol, align 1
  ret i8 %0
}

; Function Attrs: mustprogress nounwind uwtable
define linkonce_odr noundef nonnull align 8 dereferenceable(64) ptr @_ZNK6icu_7520DecimalFormatSymbols14getConstSymbolENS0_19ENumberFormatSymbolE(ptr noundef nonnull align 8 dereferenceable(2883) %this, i32 noundef %symbol) #0 comdat align 2 {
entry:
  %this.addr = alloca ptr, align 8
  %symbol.addr = alloca i32, align 4
  %strPtr = alloca ptr, align 8
  store ptr %this, ptr %this.addr, align 8
  store i32 %symbol, ptr %symbol.addr, align 4
  %this1 = load ptr, ptr %this.addr, align 8
  %0 = load i32, ptr %symbol.addr, align 4
  %cmp = icmp slt i32 %0, 29
  br i1 %cmp, label %if.then, label %if.else

if.then:                                          ; preds = %entry
  %fSymbols = getelementptr inbounds %"class.icu_75::DecimalFormatSymbols", ptr %this1, i32 0, i32 1
  %1 = load i32, ptr %symbol.addr, align 4
  %idxprom = zext i32 %1 to i64
  %arrayidx = getelementptr inbounds [29 x %"class.icu_75::UnicodeString"], ptr %fSymbols, i64 0, i64 %idxprom
  store ptr %arrayidx, ptr %strPtr, align 8
  br label %if.end

if.else:                                          ; preds = %entry
  %fNoSymbol = getelementptr inbounds %"class.icu_75::DecimalFormatSymbols", ptr %this1, i32 0, i32 2
  store ptr %fNoSymbol, ptr %strPtr, align 8
  br label %if.end

if.end:                                           ; preds = %if.else, %if.then
  %2 = load ptr, ptr %strPtr, align 8
  ret ptr %2
}

; Function Attrs: mustprogress nounwind uwtable
define linkonce_odr noundef signext i8 @_ZNK6icu_7520DecimalFormatSymbols22isCustomCurrencySymbolEv(ptr noundef nonnull align 8 dereferenceable(2883) %this) #0 comdat align 2 {
entry:
  %this.addr = alloca ptr, align 8
  store ptr %this, ptr %this.addr, align 8
  %this1 = load ptr, ptr %this.addr, align 8
  %fIsCustomCurrencySymbol = getelementptr inbounds %"class.icu_75::DecimalFormatSymbols", ptr %this1, i32 0, i32 12
  %0 = load i8, ptr %fIsCustomCurrencySymbol, align 8
  ret i8 %0
}

; Function Attrs: mustprogress uwtable
define void @_ZN6icu_756number4impl15CurrencySymbolsC2ENS_12CurrencyUnitERKNS_6LocaleERKNS_20DecimalFormatSymbolsER10UErrorCode(ptr noundef nonnull align 8 dereferenceable(232) %this, ptr noundef %currency, ptr noundef nonnull align 8 dereferenceable(217) %locale, ptr noundef nonnull align 8 dereferenceable(2883) %symbols, ptr noundef nonnull align 4 dereferenceable(4) %status) unnamed_addr #1 align 2 personality ptr @__gxx_personality_v0 {
entry:
  %this.addr = alloca ptr, align 8
  %currency.indirect_addr = alloca ptr, align 8
  %locale.addr = alloca ptr, align 8
  %symbols.addr = alloca ptr, align 8
  %status.addr = alloca ptr, align 8
  %agg.tmp = alloca %"class.icu_75::CurrencyUnit", align 8
  %exn.slot = alloca ptr, align 8
  %ehselector.slot = alloca i32, align 4
  store ptr %this, ptr %this.addr, align 8
  store ptr %currency, ptr %currency.indirect_addr, align 8
  store ptr %locale, ptr %locale.addr, align 8
  store ptr %symbols, ptr %symbols.addr, align 8
  store ptr %status, ptr %status.addr, align 8
  %this1 = load ptr, ptr %this.addr, align 8
  call void @_ZN6icu_7512CurrencyUnitC1ERKS0_(ptr noundef nonnull align 8 dereferenceable(28) %agg.tmp, ptr noundef nonnull align 8 dereferenceable(28) %currency)
  %0 = load ptr, ptr %locale.addr, align 8
  %1 = load ptr, ptr %status.addr, align 8
  invoke void @_ZN6icu_756number4impl15CurrencySymbolsC2ENS_12CurrencyUnitERKNS_6LocaleER10UErrorCode(ptr noundef nonnull align 8 dereferenceable(232) %this1, ptr noundef %agg.tmp, ptr noundef nonnull align 8 dereferenceable(217) %0, ptr noundef nonnull align 4 dereferenceable(4) %1)
          to label %invoke.cont unwind label %lpad

invoke.cont:                                      ; preds = %entry
  call void @_ZN6icu_7512CurrencyUnitD1Ev(ptr noundef nonnull align 8 dereferenceable(28) %agg.tmp) #8
  %2 = load ptr, ptr %symbols.addr, align 8
  %call = invoke noundef signext i8 @_ZNK6icu_7520DecimalFormatSymbols22isCustomCurrencySymbolEv(ptr noundef nonnull align 8 dereferenceable(2883) %2)
          to label %invoke.cont3 unwind label %lpad2

invoke.cont3:                                     ; preds = %invoke.cont
  %tobool = icmp ne i8 %call, 0
  br i1 %tobool, label %if.then, label %if.end

if.then:                                          ; preds = %invoke.cont3
  %3 = load ptr, ptr %symbols.addr, align 8
  %call5 = invoke noundef nonnull align 8 dereferenceable(64) ptr @_ZNK6icu_7520DecimalFormatSymbols14getConstSymbolENS0_19ENumberFormatSymbolE(ptr noundef nonnull align 8 dereferenceable(2883) %3, i32 noundef 8)
          to label %invoke.cont4 unwind label %lpad2

invoke.cont4:                                     ; preds = %if.then
  %fCurrencySymbol = getelementptr inbounds %"class.icu_75::number::impl::CurrencySymbols", ptr %this1, i32 0, i32 3
  %call7 = invoke noundef nonnull align 8 dereferenceable(64) ptr @_ZN6icu_7513UnicodeStringaSERKS0_(ptr noundef nonnull align 8 dereferenceable(64) %fCurrencySymbol, ptr noundef nonnull align 8 dereferenceable(64) %call5)
          to label %invoke.cont6 unwind label %lpad2

invoke.cont6:                                     ; preds = %invoke.cont4
  br label %if.end

lpad:                                             ; preds = %entry
  %4 = landingpad { ptr, i32 }
          cleanup
  %5 = extractvalue { ptr, i32 } %4, 0
  store ptr %5, ptr %exn.slot, align 8
  %6 = extractvalue { ptr, i32 } %4, 1
  store i32 %6, ptr %ehselector.slot, align 4
  call void @_ZN6icu_7512CurrencyUnitD1Ev(ptr noundef nonnull align 8 dereferenceable(28) %agg.tmp) #8
  br label %eh.resume

lpad2:                                            ; preds = %invoke.cont12, %if.then11, %if.end, %invoke.cont4, %if.then, %invoke.cont
  %7 = landingpad { ptr, i32 }
          cleanup
  %8 = extractvalue { ptr, i32 } %7, 0
  store ptr %8, ptr %exn.slot, align 8
  %9 = extractvalue { ptr, i32 } %7, 1
  store i32 %9, ptr %ehselector.slot, align 4
  call void @_ZN6icu_756number4impl15CurrencySymbolsD2Ev(ptr noundef nonnull align 8 dereferenceable(232) %this1) #8
  br label %eh.resume

if.end:                                           ; preds = %invoke.cont6, %invoke.cont3
  %10 = load ptr, ptr %symbols.addr, align 8
  %call9 = invoke noundef signext i8 @_ZNK6icu_7520DecimalFormatSymbols26isCustomIntlCurrencySymbolEv(ptr noundef nonnull align 8 dereferenceable(2883) %10)
          to label %invoke.cont8 unwind label %lpad2

invoke.cont8:                                     ; preds = %if.end
  %tobool10 = icmp ne i8 %call9, 0
  br i1 %tobool10, label %if.then11, label %if.end16

if.then11:                                        ; preds = %invoke.cont8
  %11 = load ptr, ptr %symbols.addr, align 8
  %call13 = invoke noundef nonnull align 8 dereferenceable(64) ptr @_ZNK6icu_7520DecimalFormatSymbols14getConstSymbolENS0_19ENumberFormatSymbolE(ptr noundef nonnull align 8 dereferenceable(2883) %11, i32 noundef 9)
          to label %invoke.cont12 unwind label %lpad2

invoke.cont12:                                    ; preds = %if.then11
  %fIntlCurrencySymbol = getelementptr inbounds %"class.icu_75::number::impl::CurrencySymbols", ptr %this1, i32 0, i32 4
  %call15 = invoke noundef nonnull align 8 dereferenceable(64) ptr @_ZN6icu_7513UnicodeStringaSERKS0_(ptr noundef nonnull align 8 dereferenceable(64) %fIntlCurrencySymbol, ptr noundef nonnull align 8 dereferenceable(64) %call13)
          to label %invoke.cont14 unwind label %lpad2

invoke.cont14:                                    ; preds = %invoke.cont12
  br label %if.end16

if.end16:                                         ; preds = %invoke.cont14, %invoke.cont8
  ret void

eh.resume:                                        ; preds = %lpad2, %lpad
  %exn = load ptr, ptr %exn.slot, align 8
  %sel = load i32, ptr %ehselector.slot, align 4
  %lpad.val = insertvalue { ptr, i32 } poison, ptr %exn, 0
  %lpad.val17 = insertvalue { ptr, i32 } %lpad.val, i32 %sel, 1
  resume { ptr, i32 } %lpad.val17
}