; Function Attrs: mustprogress uwtable
define void @_ZN6icu_756number4impl15CurrencySymbolsC2ENS_12CurrencyUnitERKNS_6LocaleERKNS_20DecimalFormatSymbolsER10UErrorCode(ptr noundef nonnull align 8 dereferenceable(232) %this, ptr noundef nonnull %currency, ptr nocapture noundef nonnull readonly align 8 dereferenceable(217) %locale, ptr noundef nonnull align 8 dereferenceable(2883) %symbols, ptr noundef nonnull align 4 dereferenceable(4) %status) unnamed_addr #1 align 2 personality ptr @__gxx_personality_v0 {
entry:
  %agg.tmp = alloca %"class.icu_75::CurrencyUnit", align 8
  call void @_ZN6icu_7512CurrencyUnitC1ERKS0_(ptr noundef nonnull align 8 dereferenceable(28) %agg.tmp, ptr noundef nonnull align 8 dereferenceable(28) %currency)
  invoke void @_ZN6icu_756number4impl15CurrencySymbolsC2ENS_12CurrencyUnitERKNS_6LocaleER10UErrorCode(ptr noundef nonnull align 8 dereferenceable(232) %this, ptr noundef nonnull %agg.tmp, ptr noundef nonnull align 8 dereferenceable(217) %locale, ptr noundef nonnull align 4 dereferenceable(4) %status)
          to label %invoke.cont unwind label %lpad

invoke.cont:                                      ; preds = %entry
  call void @_ZN6icu_7512CurrencyUnitD1Ev(ptr noundef nonnull align 8 dereferenceable(28) %agg.tmp) #11
  %fIsCustomCurrencySymbol.i = getelementptr inbounds i8, ptr %symbols, i64 2872
  %0 = load i8, ptr %fIsCustomCurrencySymbol.i, align 8
  %tobool.not = icmp eq i8 %0, 0
  br i1 %tobool.not, label %if.end, label %if.then

if.then:                                          ; preds = %invoke.cont
  %arrayidx.i = getelementptr inbounds i8, ptr %symbols, i64 520
  %fCurrencySymbol = getelementptr inbounds i8, ptr %this, i64 104
  %call7 = invoke noundef nonnull align 8 dereferenceable(64) ptr @_ZN6icu_7513UnicodeStringaSERKS0_(ptr noundef nonnull align 8 dereferenceable(64) %fCurrencySymbol, ptr noundef nonnull align 8 dereferenceable(64) %arrayidx.i)
          to label %if.end unwind label %lpad2

lpad:                                             ; preds = %entry
  %1 = landingpad { ptr, i32 }
          cleanup
  call void @_ZN6icu_7512CurrencyUnitD1Ev(ptr noundef nonnull align 8 dereferenceable(28) %agg.tmp) #11
  br label %eh.resume

lpad2:                                            ; preds = %if.then11, %if.then
  %2 = landingpad { ptr, i32 }
          cleanup
  call void @_ZN6icu_756number4impl15CurrencySymbolsD2Ev(ptr noundef nonnull align 8 dereferenceable(232) %this) #11
  br label %eh.resume

if.end:                                           ; preds = %if.then, %invoke.cont
  %fIsCustomIntlCurrencySymbol.i = getelementptr inbounds i8, ptr %symbols, i64 2873
  %3 = load i8, ptr %fIsCustomIntlCurrencySymbol.i, align 1
  %tobool10.not = icmp eq i8 %3, 0
  br i1 %tobool10.not, label %if.end16, label %if.then11

if.then11:                                        ; preds = %if.end
  %arrayidx.i6 = getelementptr inbounds i8, ptr %symbols, i64 584
  %fIntlCurrencySymbol = getelementptr inbounds i8, ptr %this, i64 168
  %call15 = invoke noundef nonnull align 8 dereferenceable(64) ptr @_ZN6icu_7513UnicodeStringaSERKS0_(ptr noundef nonnull align 8 dereferenceable(64) %fIntlCurrencySymbol, ptr noundef nonnull align 8 dereferenceable(64) %arrayidx.i6)
          to label %if.end16 unwind label %lpad2

if.end16:                                         ; preds = %if.then11, %if.end
  ret void

eh.resume:                                        ; preds = %lpad2, %lpad
  %.pn = phi { ptr, i32 } [ %2, %lpad2 ], [ %1, %lpad ]
  resume { ptr, i32 } %.pn
}